; ModuleID = '29/1799.c'
source_filename = "29/1799.c"
target datalayout = "e-m:e-p270:32:32-p271:32:32-p272:64:64-i64:64-f80:128-n8:16:32:64-S128"
target triple = "x86_64-pc-linux-gnu"

@.str = private unnamed_addr constant [3 x i8] c"%d\00", align 1
@.str.1 = private unnamed_addr constant [6 x i8] c"%.3f\0A\00", align 1

; Function Attrs: noinline nounwind uwtable
define dso_local i32 @main() #0 {
  %1 = alloca i32, align 4
  %2 = alloca i32, align 4
  %3 = alloca i32, align 4
  %4 = alloca i32, align 4
  %5 = alloca i32, align 4
  %6 = alloca float, align 4
  %7 = alloca float, align 4
  %8 = alloca float, align 4
  %9 = alloca float, align 4
  %10 = alloca float, align 4
  store i32 0, i32* %1, align 4
  store i32 1, i32* %5, align 4
  %11 = call i32 (i8*, ...) @__isoc99_scanf(i8* getelementptr inbounds ([3 x i8], [3 x i8]* @.str, i64 0, i64 0), i32* %2)
  store float 1.000000e+00, float* %8, align 4
  store float 2.000000e+00, float* %9, align 4
  store float 0.000000e+00, float* %6, align 4
  store i32 1, i32* %4, align 4
  br label %12

12:                                               ; preds = %40, %0
  %13 = load i32, i32* %4, align 4
  %14 = load i32, i32* %2, align 4
  %15 = icmp sle i32 %13, %14
  br i1 %15, label %16, label %43

16:                                               ; preds = %12
  %17 = call i32 (i8*, ...) @__isoc99_scanf(i8* getelementptr inbounds ([3 x i8], [3 x i8]* @.str, i64 0, i64 0), i32* %3)
  br label %18

18:                                               ; preds = %22, %16
  %19 = load i32, i32* %5, align 4
  %20 = load i32, i32* %3, align 4
  %21 = icmp sle i32 %19, %20
  br i1 %21, label %22, label %36

22:                                               ; preds = %18
  %23 = load float, float* %9, align 4
  %24 = load float, float* %8, align 4
  %25 = fdiv float %23, %24
  store float %25, float* %7, align 4
  %26 = load float, float* %6, align 4
  %27 = load float, float* %7, align 4
  %28 = fadd float %26, %27
  store float %28, float* %6, align 4
  %29 = load float, float* %9, align 4
  store float %29, float* %10, align 4
  %30 = load float, float* %9, align 4
  %31 = load float, float* %8, align 4
  %32 = fadd float %30, %31
  store float %32, float* %9, align 4
  %33 = load float, float* %10, align 4
  store float %33, float* %8, align 4
  %34 = load i32, i32* %5, align 4
  %35 = add nsw i32 %34, 1
  store i32 %35, i32* %5, align 4
  br label %18

36:                                               ; preds = %18
  %37 = load float, float* %6, align 4
  %38 = fpext float %37 to double
  %39 = call i32 (i8*, ...) @printf(i8* getelementptr inbounds ([6 x i8], [6 x i8]* @.str.1, i64 0, i64 0), double %38)
  store float 0.000000e+00, float* %6, align 4
  store i32 1, i32* %5, align 4
  store float 1.000000e+00, float* %8, align 4
  store float 2.000000e+00, float* %9, align 4
  store float 2.000000e+00, float* %10, align 4
  br label %40

40:                                               ; preds = %36
  %41 = load i32, i32* %4, align 4
  %42 = add nsw i32 %41, 1
  store i32 %42, i32* %4, align 4
  br label %12

43:                                               ; preds = %12
  ret i32 0
}

declare dso_local i32 @__isoc99_scanf(i8*, ...) #1

declare dso_local i32 @printf(i8*, ...) #1


!llvm.module.flags = !{!0}
!llvm.ident = !{!1}

!0 = !{i32 1, !"wchar_size", i32 4}
!1 = !{!"clang version 10.0.0-4ubuntu1 "}
